target datalayout = "e-m:e-p270:32:32-p271:32:32-p272:64:64-i64:64-i128:128-f80:128-n8:16:32:64-S128"
target triple = "x86_64-pc-linux-gnu"

%struct._funnel_menu_t = type { ptr, i32, ptr, ptr, ptr, i8, ptr }

@added_menus = internal global ptr null, align 8
@removed_menus = internal global ptr null, align 8

; Function Attrs: null_pointer_is_valid sspstrong uwtable
define internal void @funnel_clear_menu(ptr noundef %0) #1 {
  %2 = alloca ptr, align 8
  %3 = alloca ptr, align 8
  store ptr %0, ptr %2, align 8
  call void @llvm.lifetime.start.p0(i64 8, ptr %3) #8
  br label %4

4:                                                ; preds = %8, %1
  %5 = load ptr, ptr %2, align 8
  %6 = load ptr, ptr %5, align 8
  %7 = icmp ne ptr %6, null
  br i1 %7, label %8, label %19

8:                                                ; preds = %4
  %9 = load ptr, ptr %2, align 8
  %10 = load ptr, ptr %9, align 8
  store ptr %10, ptr %3, align 8
  %11 = load ptr, ptr %3, align 8
  %12 = getelementptr inbounds nuw %struct._funnel_menu_t, ptr %11, i32 0, i32 6
  %13 = load ptr, ptr %12, align 8
  %14 = load ptr, ptr %2, align 8
  store ptr %13, ptr %14, align 8
  %15 = load ptr, ptr %3, align 8
  %16 = getelementptr inbounds nuw %struct._funnel_menu_t, ptr %15, i32 0, i32 0
  %17 = load ptr, ptr %16, align 8
  call void @g_free(ptr noundef %17)
  %18 = load ptr, ptr %3, align 8
  call void @g_free(ptr noundef %18)
  br label %4, !llvm.loop !15

19:                                               ; preds = %4
  %20 = load ptr, ptr %2, align 8
  store ptr null, ptr %20, align 8
  call void @llvm.lifetime.end.p0(i64 8, ptr %3) #8
  ret void
}

; Function Attrs: null_pointer_is_valid sspstrong uwtable
define void @funnel_reload_menus(ptr noundef %0, ptr noundef %1) #1 {
  %3 = alloca ptr, align 8
  %4 = alloca ptr, align 8
  %5 = alloca ptr, align 8
  store ptr %0, ptr %3, align 8
  store ptr %1, ptr %4, align 8
  call void @llvm.lifetime.start.p0(i64 8, ptr %5) #8
  %6 = load ptr, ptr @removed_menus, align 8
  store ptr %6, ptr %5, align 8
  br label %7

7:                                                ; preds = %15, %2
  %8 = load ptr, ptr %5, align 8
  %9 = icmp ne ptr %8, null
  br i1 %9, label %10, label %19

10:                                               ; preds = %7
  %11 = load ptr, ptr %3, align 8
  %12 = load ptr, ptr %5, align 8
  %13 = getelementptr inbounds nuw %struct._funnel_menu_t, ptr %12, i32 0, i32 2
  %14 = load ptr, ptr %13, align 8
  call void %11(ptr noundef %14)
  br label %15

15:                                               ; preds = %10
  %16 = load ptr, ptr %5, align 8
  %17 = getelementptr inbounds nuw %struct._funnel_menu_t, ptr %16, i32 0, i32 6
  %18 = load ptr, ptr %17, align 8
  store ptr %18, ptr %5, align 8
  br label %7, !llvm.loop !13

19:                                               ; preds = %7
  %20 = load ptr, ptr @added_menus, align 8
  store ptr %20, ptr %5, align 8
  br label %21

21:                                               ; preds = %42, %19
  %22 = load ptr, ptr %5, align 8
  %23 = icmp ne ptr %22, null
  br i1 %23, label %24, label %46

24:                                               ; preds = %21
  %25 = load ptr, ptr %4, align 8
  %26 = load ptr, ptr %5, align 8
  %27 = getelementptr inbounds nuw %struct._funnel_menu_t, ptr %26, i32 0, i32 0
  %28 = load ptr, ptr %27, align 8
  %29 = load ptr, ptr %5, align 8
  %30 = getelementptr inbounds nuw %struct._funnel_menu_t, ptr %29, i32 0, i32 1
  %31 = load i32, ptr %30, align 8
  %32 = load ptr, ptr %5, align 8
  %33 = getelementptr inbounds nuw %struct._funnel_menu_t, ptr %32, i32 0, i32 2
  %34 = load ptr, ptr %33, align 8
  %35 = load ptr, ptr %5, align 8
  %36 = getelementptr inbounds nuw %struct._funnel_menu_t, ptr %35, i32 0, i32 3
  %37 = load ptr, ptr %36, align 8
  %38 = load ptr, ptr %5, align 8
  %39 = getelementptr inbounds nuw %struct._funnel_menu_t, ptr %38, i32 0, i32 5
  %40 = load i8, ptr %39, align 8, !range !6, !noundef !7
  %41 = trunc i8 %40 to i1
  call void %25(ptr noundef %28, i32 noundef %31, ptr noundef %34, ptr noundef %37, i1 noundef zeroext %41)
  br label %42

42:                                               ; preds = %24
  %43 = load ptr, ptr %5, align 8
  %44 = getelementptr inbounds nuw %struct._funnel_menu_t, ptr %43, i32 0, i32 6
  %45 = load ptr, ptr %44, align 8
  store ptr %45, ptr %5, align 8
  br label %21, !llvm.loop !14

46:                                               ; preds = %21
  call void @funnel_clear_menu(ptr noundef @removed_menus)
  call void @funnel_clear_menu(ptr noundef @added_menus)
  call void @llvm.lifetime.end.p0(i64 8, ptr %5) #8
  ret void
}