; Function Attrs: null_pointer_is_valid sspstrong uwtable
define void @funnel_reload_menus(ptr noundef readonly captures(none) %0, ptr noundef readonly captures(none) %1) local_unnamed_addr #2 {
  %.017 = load ptr, ptr @removed_menus, align 8
  %.not18 = icmp eq ptr %.017, null
  br i1 %.not18, label %.preheader, label %.lr.ph

.preheader:                                       ; preds = %.lr.ph, %2
  %.120 = load ptr, ptr @added_menus, align 8
  %.not1221 = icmp eq ptr %.120, null
  br i1 %.not1221, label %._crit_edge, label %.lr.ph23

.lr.ph:                                           ; preds = %2, %.lr.ph
  %.019 = phi ptr [ %.0, %.lr.ph ], [ %.017, %2 ]
  %3 = getelementptr inbounds nuw i8, ptr %.019, i64 16
  %4 = load ptr, ptr %3, align 8
  tail call void %0(ptr noundef %4)
  %5 = getelementptr inbounds nuw i8, ptr %.019, i64 48
  %.0 = load ptr, ptr %5, align 8
  %.not = icmp eq ptr %.0, null
  br i1 %.not, label %.preheader, label %.lr.ph, !llvm.loop !13

.lr.ph23:                                         ; preds = %.preheader, %.lr.ph23
  %.122 = phi ptr [ %.1, %.lr.ph23 ], [ %.120, %.preheader ]
  %6 = load ptr, ptr %.122, align 8
  %7 = getelementptr inbounds nuw i8, ptr %.122, i64 8
  %8 = load i32, ptr %7, align 8
  %9 = getelementptr inbounds nuw i8, ptr %.122, i64 16
  %10 = load ptr, ptr %9, align 8
  %11 = getelementptr inbounds nuw i8, ptr %.122, i64 24
  %12 = load ptr, ptr %11, align 8
  %13 = getelementptr inbounds nuw i8, ptr %.122, i64 40
  %14 = load i8, ptr %13, align 8, !range !10, !noundef !11
  %15 = trunc nuw i8 %14 to i1
  tail call void %1(ptr noundef %6, i32 noundef %8, ptr noundef %10, ptr noundef %12, i1 noundef zeroext %15)
  %16 = getelementptr inbounds nuw i8, ptr %.122, i64 48
  %.1 = load ptr, ptr %16, align 8
  %.not12 = icmp eq ptr %.1, null
  br i1 %.not12, label %._crit_edge, label %.lr.ph23, !llvm.loop !14

._crit_edge:                                      ; preds = %.lr.ph23, %.preheader
  %17 = load ptr, ptr @removed_menus, align 8
  %.not7.i = icmp eq ptr %17, null
  br i1 %.not7.i, label %funnel_clear_menu.exit, label %.lr.ph.i

.lr.ph.i:                                         ; preds = %._crit_edge, %.lr.ph.i
  %18 = phi ptr [ %22, %.lr.ph.i ], [ %17, %._crit_edge ]
  %19 = getelementptr inbounds nuw i8, ptr %18, i64 48
  %20 = load ptr, ptr %19, align 8
  store ptr %20, ptr @removed_menus, align 8
  %21 = load ptr, ptr %18, align 8
  tail call void @g_free(ptr noundef %21)
  tail call void @g_free(ptr noundef nonnull %18)
  %22 = load ptr, ptr @removed_menus, align 8
  %.not.i = icmp eq ptr %22, null
  br i1 %.not.i, label %funnel_clear_menu.exit, label %.lr.ph.i, !llvm.loop !15

funnel_clear_menu.exit:                           ; preds = %.lr.ph.i, %._crit_edge
  store ptr null, ptr @removed_menus, align 8
  %23 = load ptr, ptr @added_menus, align 8
  %.not7.i13 = icmp eq ptr %23, null
  br i1 %.not7.i13, label %funnel_clear_menu.exit16, label %.lr.ph.i14

.lr.ph.i14:                                       ; preds = %funnel_clear_menu.exit, %.lr.ph.i14
  %24 = phi ptr [ %28, %.lr.ph.i14 ], [ %23, %funnel_clear_menu.exit ]
  %25 = getelementptr inbounds nuw i8, ptr %24, i64 48
  %26 = load ptr, ptr %25, align 8
  store ptr %26, ptr @added_menus, align 8
  %27 = load ptr, ptr %24, align 8
  tail call void @g_free(ptr noundef %27)
  tail call void @g_free(ptr noundef nonnull %24)
  %28 = load ptr, ptr @added_menus, align 8
  %.not.i15 = icmp eq ptr %28, null
  br i1 %.not.i15, label %funnel_clear_menu.exit16, label %.lr.ph.i14, !llvm.loop !15

funnel_clear_menu.exit16:                         ; preds = %.lr.ph.i14, %funnel_clear_menu.exit
  store ptr null, ptr @added_menus, align 8
  ret void
}